; Function Attrs: mustprogress uwtable
define void @_ZN8QuantLib14TwoFactorModel13ShortRateTreeC2ERKN5boost10shared_ptrINS_13TrinomialTreeEEES7_RKNS3_INS0_17ShortRateDynamicsEEE(ptr noundef nonnull align 8 dereferenceable(200) %this, ptr noundef nonnull align 8 dereferenceable(16) %tree1, ptr nocapture noundef nonnull readonly align 8 dereferenceable(16) %tree2, ptr nocapture noundef nonnull readonly align 8 dereferenceable(16) %dynamics) unnamed_addr #1 align 2 personality ptr @__gxx_personality_v0 {
entry:
  %agg.tmp = alloca %"class.boost::shared_ptr.34", align 8
  %0 = load ptr, ptr %tree2, align 8, !tbaa !42
  store ptr %0, ptr %agg.tmp, align 8, !tbaa !42
  %pn.i = getelementptr inbounds nuw i8, ptr %agg.tmp, i64 8
  %pn3.i = getelementptr inbounds nuw i8, ptr %tree2, i64 8
  %1 = load ptr, ptr %pn3.i, align 8, !tbaa !16
  store ptr %1, ptr %pn.i, align 8, !tbaa !16
  %cmp.not.i.i = icmp eq ptr %1, null
  br i1 %cmp.not.i.i, label %_ZN5boost10shared_ptrIN8QuantLib13TrinomialTreeEEC2ERKS3_.exit, label %if.then.i.i

if.then.i.i:                                      ; preds = %entry
  %use_count_.i.i.i = getelementptr inbounds nuw i8, ptr %1, i64 8
  %2 = atomicrmw add ptr %use_count_.i.i.i, i32 1 monotonic, align 4
  br label %_ZN5boost10shared_ptrIN8QuantLib13TrinomialTreeEEC2ERKS3_.exit

_ZN5boost10shared_ptrIN8QuantLib13TrinomialTreeEEC2ERKS3_.exit: ; preds = %entry, %if.then.i.i
  %3 = load ptr, ptr %dynamics, align 8, !tbaa !39
  %cmp.not.i = icmp eq ptr %3, null
  br i1 %cmp.not.i, label %cond.false.i, label %invoke.cont, !prof !41

cond.false.i:                                     ; preds = %_ZN5boost10shared_ptrIN8QuantLib13TrinomialTreeEEC2ERKS3_.exit
  invoke void @_ZN5boost16assertion_failedEPKcS1_S1_l(ptr noundef nonnull @.str.8, ptr noundef nonnull @__PRETTY_FUNCTION__._ZNK5boost10shared_ptrIN8QuantLib14TwoFactorModel17ShortRateDynamicsEEptEv, ptr noundef nonnull @.str.9, i64 noundef 784)
          to label %.noexc unwind label %lpad

.noexc:                                           ; preds = %cond.false.i
  %.pre.i = load ptr, ptr %dynamics, align 8, !tbaa !39
  br label %invoke.cont

invoke.cont:                                      ; preds = %.noexc, %_ZN5boost10shared_ptrIN8QuantLib13TrinomialTreeEEC2ERKS3_.exit
  %4 = phi ptr [ %3, %_ZN5boost10shared_ptrIN8QuantLib13TrinomialTreeEEC2ERKS3_.exit ], [ %.pre.i, %.noexc ]
  %correlation_.i = getelementptr inbounds nuw i8, ptr %4, i64 40
  %5 = load double, ptr %correlation_.i, align 8, !tbaa !54
  invoke void @_ZN8QuantLib13TreeLattice2DINS_14TwoFactorModel13ShortRateTreeENS_13TrinomialTreeEEC2ERKN5boost10shared_ptrIS3_EES7_d(ptr noundef nonnull align 8 dereferenceable(184) %this, ptr noundef nonnull align 8 dereferenceable(16) %tree1, ptr noundef nonnull %agg.tmp, double noundef %5)
          to label %invoke.cont4 unwind label %lpad

invoke.cont4:                                     ; preds = %invoke.cont
  %6 = load ptr, ptr %pn.i, align 8, !tbaa !16
  %cmp.not.i.i3 = icmp eq ptr %6, null
  br i1 %cmp.not.i.i3, label %_ZN5boost10shared_ptrIN8QuantLib13TrinomialTreeEED2Ev.exit, label %if.then.i.i4

if.then.i.i4:                                     ; preds = %invoke.cont4
  %use_count_.i.i.i5 = getelementptr inbounds nuw i8, ptr %6, i64 8
  %7 = atomicrmw sub ptr %use_count_.i.i.i5, i32 1 acq_rel, align 4
  %cmp.i.i.i = icmp eq i32 %7, 1
  br i1 %cmp.i.i.i, label %if.then.i.i.i, label %_ZN5boost10shared_ptrIN8QuantLib13TrinomialTreeEED2Ev.exit

if.then.i.i.i:                                    ; preds = %if.then.i.i4
  %vtable.i.i.i = load ptr, ptr %6, align 8, !tbaa !14
  %vfn.i.i.i = getelementptr inbounds i8, ptr %vtable.i.i.i, i64 16
  %8 = load ptr, ptr %vfn.i.i.i, align 8
  invoke void %8(ptr noundef nonnull align 8 dereferenceable(16) %6)
          to label %.noexc.i.i unwind label %terminate.lpad.i.i

.noexc.i.i:                                       ; preds = %if.then.i.i.i
  %weak_count_.i.i.i.i = getelementptr inbounds nuw i8, ptr %6, i64 12
  %9 = atomicrmw sub ptr %weak_count_.i.i.i.i, i32 1 acq_rel, align 4
  %cmp.i.i.i.i = icmp eq i32 %9, 1
  br i1 %cmp.i.i.i.i, label %if.then.i.i.i.i, label %_ZN5boost10shared_ptrIN8QuantLib13TrinomialTreeEED2Ev.exit

if.then.i.i.i.i:                                  ; preds = %.noexc.i.i
  %vtable.i.i.i.i = load ptr, ptr %6, align 8, !tbaa !14
  %vfn.i.i.i.i = getelementptr inbounds i8, ptr %vtable.i.i.i.i, i64 24
  %10 = load ptr, ptr %vfn.i.i.i.i, align 8
  invoke void %10(ptr noundef nonnull align 8 dereferenceable(16) %6)
          to label %_ZN5boost10shared_ptrIN8QuantLib13TrinomialTreeEED2Ev.exit unwind label %terminate.lpad.i.i

terminate.lpad.i.i:                               ; preds = %if.then.i.i.i.i, %if.then.i.i.i
  %11 = landingpad { ptr, i32 }
          catch ptr null
  %12 = extractvalue { ptr, i32 } %11, 0
  call void @__clang_call_terminate(ptr %12) #28
  unreachable

_ZN5boost10shared_ptrIN8QuantLib13TrinomialTreeEED2Ev.exit: ; preds = %invoke.cont4, %if.then.i.i4, %.noexc.i.i, %if.then.i.i.i.i
  store ptr getelementptr inbounds inrange(-16, 56) (i8, ptr @_ZTVN8QuantLib14TwoFactorModel13ShortRateTreeE, i64 16), ptr %this, align 8, !tbaa !14
  %dynamics_ = getelementptr inbounds nuw i8, ptr %this, i64 184
  %13 = load ptr, ptr %dynamics, align 8, !tbaa !39
  store ptr %13, ptr %dynamics_, align 8, !tbaa !39
  %pn.i6 = getelementptr inbounds nuw i8, ptr %this, i64 192
  %pn3.i7 = getelementptr inbounds nuw i8, ptr %dynamics, i64 8
  %14 = load ptr, ptr %pn3.i7, align 8, !tbaa !16
  store ptr %14, ptr %pn.i6, align 8, !tbaa !16
  %cmp.not.i.i8 = icmp eq ptr %14, null
  br i1 %cmp.not.i.i8, label %_ZN5boost10shared_ptrIN8QuantLib14TwoFactorModel17ShortRateDynamicsEEC2ERKS4_.exit, label %if.then.i.i9

if.then.i.i9:                                     ; preds = %_ZN5boost10shared_ptrIN8QuantLib13TrinomialTreeEED2Ev.exit
  %use_count_.i.i.i10 = getelementptr inbounds nuw i8, ptr %14, i64 8
  %15 = atomicrmw add ptr %use_count_.i.i.i10, i32 1 monotonic, align 4
  br label %_ZN5boost10shared_ptrIN8QuantLib14TwoFactorModel17ShortRateDynamicsEEC2ERKS4_.exit

_ZN5boost10shared_ptrIN8QuantLib14TwoFactorModel17ShortRateDynamicsEEC2ERKS4_.exit: ; preds = %_ZN5boost10shared_ptrIN8QuantLib13TrinomialTreeEED2Ev.exit, %if.then.i.i9
  ret void

lpad:                                             ; preds = %cond.false.i, %invoke.cont
  %16 = landingpad { ptr, i32 }
          cleanup
  call void @_ZN5boost10shared_ptrIN8QuantLib13TrinomialTreeEED2Ev(ptr noundef nonnull align 8 dereferenceable(16) %agg.tmp) #27
  resume { ptr, i32 } %16
}